(dp0
I211378970
(dp1
S'beni'
p2
S'raboof'
p3
sS'receipt'
p4
(lp5
(dp6
S'count'
p7
I1
sS'product'
p8
S'deposit'
p9
sS'description'
p10
S'Deposit'
p11
sS'value'
p12
F25.0
sS'Lose'
p13
I00
sg2
g3
sS'total'
p14
F25.0
sasS'totals'
p15
(dp16
g3
F25.0
sss.